target datalayout = "e-m:e-p270:32:32-p271:32:32-p272:64:64-i64:64-i128:128-f80:128-n8:16:32:64-S128"
target triple = "x86_64-unknown-linux-gnu"

%"struct.msdfgen::Vector2" = type { double, double }
%"class.msdfgen::MSDFErrorCorrection" = type { %"struct.msdfgen::BitmapRef", %"class.msdfgen::Projection", double, double, double }
%"struct.msdfgen::BitmapRef" = type { ptr, i32, i32 }
%"class.msdfgen::Projection" = type { %"struct.msdfgen::Vector2", %"struct.msdfgen::Vector2" }

; Function Attrs: mustprogress nounwind uwtable
define dso_local void @_ZN7msdfgen19MSDFErrorCorrectionC2ERKNS_9BitmapRefIhLi1EEERKNS_10ProjectionEd(ptr noundef nonnull align 8 dereferenceable(72) %this, ptr noundef nonnull align 8 dereferenceable(16) %stencil, ptr noundef nonnull align 8 dereferenceable(32) %projection, double noundef %range) unnamed_addr #2 align 2 {
entry:
  %this.addr = alloca ptr, align 8
  %stencil.addr = alloca ptr, align 8
  %projection.addr = alloca ptr, align 8
  %range.addr = alloca double, align 8
  store ptr %this, ptr %this.addr, align 8
  store ptr %stencil, ptr %stencil.addr, align 8
  store ptr %projection, ptr %projection.addr, align 8
  store double %range, ptr %range.addr, align 8
  %this1 = load ptr, ptr %this.addr, align 8
  %stencil2 = getelementptr inbounds %"class.msdfgen::MSDFErrorCorrection", ptr %this1, i32 0, i32 0
  %0 = load ptr, ptr %stencil.addr, align 8
  call void @llvm.memcpy.p0.p0.i64(ptr align 8 %stencil2, ptr align 8 %0, i64 16, i1 false)
  %projection3 = getelementptr inbounds %"class.msdfgen::MSDFErrorCorrection", ptr %this1, i32 0, i32 1
  %1 = load ptr, ptr %projection.addr, align 8
  call void @llvm.memcpy.p0.p0.i64(ptr align 8 %projection3, ptr align 8 %1, i64 32, i1 false)
  %2 = load double, ptr %range.addr, align 8
  %div = fdiv double 1.000000e+00, %2
  %invRange = getelementptr inbounds %"class.msdfgen::MSDFErrorCorrection", ptr %this1, i32 0, i32 2
  store double %div, ptr %invRange, align 8
  %minDeviationRatio = getelementptr inbounds %"class.msdfgen::MSDFErrorCorrection", ptr %this1, i32 0, i32 3
  store double 0x3FF1C71C71C71C72, ptr %minDeviationRatio, align 8
  %minImproveRatio = getelementptr inbounds %"class.msdfgen::MSDFErrorCorrection", ptr %this1, i32 0, i32 4
  store double 0x3FF1C71C71C71C72, ptr %minImproveRatio, align 8
  %3 = load ptr, ptr %stencil.addr, align 8
  %pixels = getelementptr inbounds %"struct.msdfgen::BitmapRef", ptr %3, i32 0, i32 0
  %4 = load ptr, ptr %pixels, align 8
  %5 = load ptr, ptr %stencil.addr, align 8
  %width = getelementptr inbounds %"struct.msdfgen::BitmapRef", ptr %5, i32 0, i32 1
  %6 = load i32, ptr %width, align 8
  %conv = sext i32 %6 to i64
  %mul = mul i64 1, %conv
  %7 = load ptr, ptr %stencil.addr, align 8
  %height = getelementptr inbounds %"struct.msdfgen::BitmapRef", ptr %7, i32 0, i32 2
  %8 = load i32, ptr %height, align 4
  %conv4 = sext i32 %8 to i64
  %mul5 = mul i64 %mul, %conv4
  call void @llvm.memset.p0.i64(ptr align 1 %4, i8 0, i64 %mul5, i1 false)
  ret void
}