; Function Attrs: mustprogress nofree norecurse nosync nounwind willreturn memory(write, argmem: readwrite, inaccessiblemem: none) uwtable
define dso_local void @_ZN7msdfgen19MSDFErrorCorrectionC2ERKNS_9BitmapRefIhLi1EEERKNS_10ProjectionEd(ptr noundef nonnull writeonly align 8 captures(none) dereferenceable(72) initializes((0, 72)) %this, ptr noundef nonnull readonly align 8 captures(none) dereferenceable(16) %stencil, ptr noundef nonnull readonly align 8 captures(none) dereferenceable(32) %projection, double noundef %range) unnamed_addr #6 align 2 {
entry:
  tail call void @llvm.memcpy.p0.p0.i64(ptr noundef nonnull align 8 dereferenceable(16) %this, ptr noundef nonnull align 8 dereferenceable(16) %stencil, i64 16, i1 false)
  %projection3 = getelementptr inbounds nuw i8, ptr %this, i64 16
  tail call void @llvm.memcpy.p0.p0.i64(ptr noundef nonnull align 8 dereferenceable(32) %projection3, ptr noundef nonnull align 8 dereferenceable(32) %projection, i64 32, i1 false)
  %div = fdiv double 1.000000e+00, %range
  %invRange = getelementptr inbounds nuw i8, ptr %this, i64 48
  store double %div, ptr %invRange, align 8
  %minDeviationRatio = getelementptr inbounds nuw i8, ptr %this, i64 56
  store double 0x3FF1C71C71C71C72, ptr %minDeviationRatio, align 8
  %minImproveRatio = getelementptr inbounds nuw i8, ptr %this, i64 64
  store double 0x3FF1C71C71C71C72, ptr %minImproveRatio, align 8
  %0 = load ptr, ptr %stencil, align 8
  %width = getelementptr inbounds nuw i8, ptr %stencil, i64 8
  %1 = load i32, ptr %width, align 8
  %conv = sext i32 %1 to i64
  %height = getelementptr inbounds nuw i8, ptr %stencil, i64 12
  %2 = load i32, ptr %height, align 4
  %conv4 = sext i32 %2 to i64
  %mul5 = mul nsw i64 %conv4, %conv
  tail call void @llvm.memset.p0.i64(ptr align 1 %0, i8 0, i64 %mul5, i1 false)
  ret void
}